; Function Attrs: mustprogress nounwind uwtable
define dso_local void @_ZN5clang27MultiplexExternalSemaSourceC2EPNS_18ExternalSemaSourceES2_(ptr noundef nonnull align 8 dereferenceable(48) %0, ptr noundef %1, ptr noundef %2) unnamed_addr #0 align 2 {
  %4 = getelementptr inbounds i8, ptr %0, i64 8
  store i32 0, ptr %4, align 8
  %5 = getelementptr inbounds nuw i8, ptr %0, i64 12
  store i32 0, ptr %5, align 4
  store ptr getelementptr inbounds inrange(-16, 392) (i8, ptr @_ZTVN5clang27MultiplexExternalSemaSourceE, i64 16), ptr %0, align 8
  %6 = getelementptr inbounds nuw i8, ptr %0, i64 16
  %7 = getelementptr inbounds i8, ptr %0, i64 32
  tail call void @_ZN4llvm15SmallVectorBaseIjEC2EPvm(ptr noundef nonnull align 8 dereferenceable(16) %6, ptr noundef nonnull %7, i64 noundef 2) #6
  %8 = getelementptr inbounds i8, ptr %1, i64 8
  %9 = load i32, ptr %8, align 4
  %10 = add i32 %9, 1
  store i32 %10, ptr %8, align 4
  %11 = getelementptr inbounds i8, ptr %2, i64 8
  %12 = load i32, ptr %11, align 4
  %13 = add i32 %12, 1
  store i32 %13, ptr %11, align 4
  %14 = tail call noundef i64 @_ZNK4llvm15SmallVectorBaseIjE4sizeEv(ptr noundef nonnull align 8 dereferenceable(16) %6) #6
  %15 = add i64 %14, 1
  %16 = tail call noundef i64 @_ZNK4llvm15SmallVectorBaseIjE8capacityEv(ptr noundef nonnull align 8 dereferenceable(16) %6) #6
  %.not.i.i.i = icmp ugt i64 %15, %16
  br i1 %.not.i.i.i, label %17, label %_ZN4llvm23SmallVectorTemplateBaseIPN5clang18ExternalSemaSourceELb1EE9push_backES3_.exit

17:                                               ; preds = %3
  tail call void @_ZN4llvm15SmallVectorBaseIjE8grow_podEPvmm(ptr noundef nonnull align 8 dereferenceable(16) %6, ptr noundef nonnull %7, i64 noundef %15, i64 noundef 8) #6
  br label %_ZN4llvm23SmallVectorTemplateBaseIPN5clang18ExternalSemaSourceELb1EE9push_backES3_.exit

_ZN4llvm23SmallVectorTemplateBaseIPN5clang18ExternalSemaSourceELb1EE9push_backES3_.exit: ; preds = %3, %17
  %18 = load ptr, ptr %6, align 8
  %19 = tail call noundef i64 @_ZNK4llvm15SmallVectorBaseIjE4sizeEv(ptr noundef nonnull align 8 dereferenceable(16) %6) #6
  %20 = getelementptr inbounds ptr, ptr %18, i64 %19
  %21 = ptrtoint ptr %1 to i64
  store i64 %21, ptr %20, align 1
  %22 = tail call noundef i64 @_ZNK4llvm15SmallVectorBaseIjE4sizeEv(ptr noundef nonnull align 8 dereferenceable(16) %6) #6
  %23 = add i64 %22, 1
  tail call void @_ZN4llvm15SmallVectorBaseIjE8set_sizeEm(ptr noundef nonnull align 8 dereferenceable(16) %6, i64 noundef %23) #6
  %24 = tail call noundef i64 @_ZNK4llvm15SmallVectorBaseIjE4sizeEv(ptr noundef nonnull align 8 dereferenceable(16) %6) #6
  %25 = add i64 %24, 1
  %26 = tail call noundef i64 @_ZNK4llvm15SmallVectorBaseIjE8capacityEv(ptr noundef nonnull align 8 dereferenceable(16) %6) #6
  %.not.i.i.i5 = icmp ugt i64 %25, %26
  br i1 %.not.i.i.i5, label %27, label %_ZN4llvm23SmallVectorTemplateBaseIPN5clang18ExternalSemaSourceELb1EE9push_backES3_.exit6

27:                                               ; preds = %_ZN4llvm23SmallVectorTemplateBaseIPN5clang18ExternalSemaSourceELb1EE9push_backES3_.exit
  tail call void @_ZN4llvm15SmallVectorBaseIjE8grow_podEPvmm(ptr noundef nonnull align 8 dereferenceable(16) %6, ptr noundef nonnull %7, i64 noundef %25, i64 noundef 8) #6
  br label %_ZN4llvm23SmallVectorTemplateBaseIPN5clang18ExternalSemaSourceELb1EE9push_backES3_.exit6

_ZN4llvm23SmallVectorTemplateBaseIPN5clang18ExternalSemaSourceELb1EE9push_backES3_.exit6: ; preds = %_ZN4llvm23SmallVectorTemplateBaseIPN5clang18ExternalSemaSourceELb1EE9push_backES3_.exit, %27
  %28 = load ptr, ptr %6, align 8
  %29 = tail call noundef i64 @_ZNK4llvm15SmallVectorBaseIjE4sizeEv(ptr noundef nonnull align 8 dereferenceable(16) %6) #6
  %30 = getelementptr inbounds ptr, ptr %28, i64 %29
  %31 = ptrtoint ptr %2 to i64
  store i64 %31, ptr %30, align 1
  %32 = tail call noundef i64 @_ZNK4llvm15SmallVectorBaseIjE4sizeEv(ptr noundef nonnull align 8 dereferenceable(16) %6) #6
  %33 = add i64 %32, 1
  tail call void @_ZN4llvm15SmallVectorBaseIjE8set_sizeEm(ptr noundef nonnull align 8 dereferenceable(16) %6, i64 noundef %33) #6
  ret void
}